; Function Attrs: nounwind uwtable
define internal i32 @heapmanaged_traverse(ptr noundef %0, ptr noundef %1, ptr noundef %2) #0 {
  %4 = getelementptr i8, ptr %0, i64 8
  %.val12 = load ptr, ptr %4, align 8, !tbaa !9
  %.not = icmp eq ptr %.val12, null
  br i1 %.not, label %7, label %5

5:                                                ; preds = %3
  %6 = tail call i32 %1(ptr noundef nonnull %.val12, ptr noundef %2) #8
  %.not11.not = icmp eq i32 %6, 0
  br i1 %.not11.not, label %7, label %9

7:                                                ; preds = %5, %3
  %8 = tail call i32 @PyObject_VisitManagedDict(ptr noundef nonnull %0, ptr noundef %1, ptr noundef %2) #8
  br label %9

9:                                                ; preds = %5, %7
  %.1 = phi i32 [ %6, %5 ], [ %8, %7 ]
  ret i32 %.1
}